target datalayout = "e-m:e-p270:32:32-p271:32:32-p272:64:64-i64:64-i128:128-f80:128-n8:16:32:64-S128"
target triple = "x86_64-pc-linux-gnu"

%union.pthread_mutex_t = type { %struct.__pthread_mutex_s }
%struct.__pthread_mutex_s = type { i32, i32, i32, i32, i32, i16, i16, %struct.__pthread_internal_list }
%struct.__pthread_internal_list = type { ptr, ptr }
%struct.slurmdbd_conn_t = type { ptr, ptr, %union.pthread_mutex_t, ptr, ptr }
%struct.persist_conn_t = type { ptr, i32, i32, i8, ptr, ptr, ptr, i64, i16, i32, i16, i8, i32, i32, ptr, i16, ptr, i64, i32, ptr, %struct.slurm_trigger_callbacks_t, i16 }
%struct.slurm_trigger_callbacks_t = type { ptr, ptr, ptr, ptr, ptr }
%struct.persist_msg_t = type { ptr, ptr, i16 }
%struct.dbd_list_msg_t = type { ptr, i32 }
%struct.dbd_cond_msg_t = type { ptr }

@.str.75 = private unnamed_addr constant [31 x i8] c"DBD_GET_QOS: called in CONN %d\00", align 1

; Function Attrs: nounwind uwtable
define internal i32 @_get_qos(ptr noundef %0, ptr noundef %1, ptr noundef %2) #0 {
  %4 = alloca ptr, align 8
  %5 = alloca ptr, align 8
  %6 = alloca ptr, align 8
  %7 = alloca ptr, align 8
  %8 = alloca %struct.dbd_list_msg_t, align 8
  %9 = alloca i32, align 4
  store ptr %0, ptr %4, align 8
  store ptr %1, ptr %5, align 8
  store ptr %2, ptr %6, align 8
  call void @llvm.lifetime.start.p0(i64 8, ptr %7) #8
  %10 = load ptr, ptr %5, align 8
  %11 = getelementptr inbounds nuw %struct.persist_msg_t, ptr %10, i32 0, i32 1
  %12 = load ptr, ptr %11, align 8
  store ptr %12, ptr %7, align 8
  call void @llvm.lifetime.start.p0(i64 16, ptr %8) #8
  call void @llvm.memset.p0.i64(ptr align 8 %8, i8 0, i64 16, i1 false)
  call void @llvm.lifetime.start.p0(i64 4, ptr %9) #8
  store i32 0, ptr %9, align 4
  br label %13

13:                                               ; preds = %3
  br label %14

14:                                               ; preds = %13
  %15 = call i32 @get_log_level()
  %16 = icmp sge i32 %15, 6
  br i1 %16, label %17, label %23

17:                                               ; preds = %14
  %18 = load ptr, ptr %4, align 8
  %19 = getelementptr inbounds nuw %struct.slurmdbd_conn_t, ptr %18, i32 0, i32 0
  %20 = load ptr, ptr %19, align 8
  %21 = getelementptr inbounds nuw %struct.persist_conn_t, ptr %20, i32 0, i32 9
  %22 = load i32, ptr %21, align 4
  call void (i32, ptr, ...) @log_var(i32 noundef 6, ptr noundef @.str.75, i32 noundef %22)
  br label %23

23:                                               ; preds = %17, %14
  br label %24

24:                                               ; preds = %23
  br label %25

25:                                               ; preds = %24
  br label %26

26:                                               ; preds = %25
  br label %27

27:                                               ; preds = %26
  %28 = load ptr, ptr %4, align 8
  %29 = getelementptr inbounds nuw %struct.slurmdbd_conn_t, ptr %28, i32 0, i32 3
  %30 = load ptr, ptr %29, align 8
  %31 = load ptr, ptr %4, align 8
  %32 = getelementptr inbounds nuw %struct.slurmdbd_conn_t, ptr %31, i32 0, i32 0
  %33 = load ptr, ptr %32, align 8
  %34 = getelementptr inbounds nuw %struct.persist_conn_t, ptr %33, i32 0, i32 1
  %35 = load i32, ptr %34, align 8
  %36 = load ptr, ptr %7, align 8
  %37 = getelementptr inbounds nuw %struct.dbd_cond_msg_t, ptr %36, i32 0, i32 0
  %38 = load ptr, ptr %37, align 8
  %39 = call ptr @acct_storage_g_get_qos(ptr noundef %30, i32 noundef %35, ptr noundef %38)
  %40 = getelementptr inbounds nuw %struct.dbd_list_msg_t, ptr %8, i32 0, i32 0
  store ptr %39, ptr %40, align 8
  %41 = call ptr @__errno_location() #10
  %42 = load i32, ptr %41, align 4
  %43 = icmp eq i32 %42, 2002
  br i1 %43, label %44, label %51

44:                                               ; preds = %27
  %45 = getelementptr inbounds nuw %struct.dbd_list_msg_t, ptr %8, i32 0, i32 0
  %46 = load ptr, ptr %45, align 8
  %47 = icmp ne ptr %46, null
  br i1 %47, label %51, label %48

48:                                               ; preds = %44
  %49 = call ptr @list_create(ptr noundef null)
  %50 = getelementptr inbounds nuw %struct.dbd_list_msg_t, ptr %8, i32 0, i32 0
  store ptr %49, ptr %50, align 8
  br label %51

51:                                               ; preds = %48, %44, %27
  %52 = call ptr @__errno_location() #10
  %53 = load i32, ptr %52, align 4
  %54 = icmp ne i32 %53, 0
  br i1 %54, label %74, label %55

55:                                               ; preds = %51
  %56 = getelementptr inbounds nuw %struct.dbd_list_msg_t, ptr %8, i32 0, i32 0
  %57 = load ptr, ptr %56, align 8
  %58 = icmp ne ptr %57, null
  br i1 %58, label %62, label %59

59:                                               ; preds = %55
  %60 = call ptr @list_create(ptr noundef null)
  %61 = getelementptr inbounds nuw %struct.dbd_list_msg_t, ptr %8, i32 0, i32 0
  store ptr %60, ptr %61, align 8
  br label %62

62:                                               ; preds = %59, %55
  %63 = call ptr @init_buf(i32 noundef 1024)
  %64 = load ptr, ptr %6, align 8
  store ptr %63, ptr %64, align 8
  %65 = load ptr, ptr %6, align 8
  %66 = load ptr, ptr %65, align 8
  call void @pack16(i16 noundef zeroext 1449, ptr noundef %66)
  %67 = load ptr, ptr %4, align 8
  %68 = getelementptr inbounds nuw %struct.slurmdbd_conn_t, ptr %67, i32 0, i32 0
  %69 = load ptr, ptr %68, align 8
  %70 = getelementptr inbounds nuw %struct.persist_conn_t, ptr %69, i32 0, i32 21
  %71 = load i16, ptr %70, align 8
  %72 = load ptr, ptr %6, align 8
  %73 = load ptr, ptr %72, align 8
  call void @slurmdbd_pack_list_msg(ptr noundef %8, i16 noundef zeroext %71, i32 noundef 1449, ptr noundef %73)
  br label %85

74:                                               ; preds = %51
  %75 = load ptr, ptr %4, align 8
  %76 = getelementptr inbounds nuw %struct.slurmdbd_conn_t, ptr %75, i32 0, i32 0
  %77 = load ptr, ptr %76, align 8
  %78 = call ptr @__errno_location() #10
  %79 = load i32, ptr %78, align 4
  %80 = call ptr @__errno_location() #10
  %81 = load i32, ptr %80, align 4
  %82 = call ptr @slurm_strerror(i32 noundef %81)
  %83 = call ptr @slurm_persist_make_rc_msg(ptr noundef %77, i32 noundef %79, ptr noundef %82, i16 noundef zeroext 1448)
  %84 = load ptr, ptr %6, align 8
  store ptr %83, ptr %84, align 8
  store i32 -1, ptr %9, align 4
  br label %85

85:                                               ; preds = %74, %62
  br label %86

86:                                               ; preds = %85
  %87 = getelementptr inbounds nuw %struct.dbd_list_msg_t, ptr %8, i32 0, i32 0
  %88 = load ptr, ptr %87, align 8
  %89 = icmp ne ptr %88, null
  br i1 %89, label %90, label %93

90:                                               ; preds = %86
  %91 = getelementptr inbounds nuw %struct.dbd_list_msg_t, ptr %8, i32 0, i32 0
  %92 = load ptr, ptr %91, align 8
  call void @list_destroy(ptr noundef %92)
  br label %93

93:                                               ; preds = %90, %86
  %94 = getelementptr inbounds nuw %struct.dbd_list_msg_t, ptr %8, i32 0, i32 0
  store ptr null, ptr %94, align 8
  br label %95

95:                                               ; preds = %93
  br label %96

96:                                               ; preds = %95
  %97 = load i32, ptr %9, align 4
  call void @llvm.lifetime.end.p0(i64 4, ptr %9) #8
  call void @llvm.lifetime.end.p0(i64 16, ptr %8) #8
  call void @llvm.lifetime.end.p0(i64 8, ptr %7) #8
  ret i32 %97
}