; Function Attrs: nounwind uwtable
define internal fastcc range(i32 -1, 1) i32 @_get_qos(ptr noundef readonly captures(none) %0, ptr readonly captures(none) %.8.val, ptr noundef captures(none) initializes((0, 8)) %1) unnamed_addr #0 {
  %3 = alloca %struct.dbd_list_msg_t, align 8
  call void @llvm.lifetime.start.p0(i64 16, ptr nonnull %3) #10
  %4 = getelementptr inbounds nuw i8, ptr %3, i64 8
  store i64 0, ptr %4, align 8
  %5 = tail call i32 @get_log_level() #10
  %6 = icmp sgt i32 %5, 5
  br i1 %6, label %7, label %11

7:                                                ; preds = %2
  %8 = load ptr, ptr %0, align 8
  %9 = getelementptr inbounds nuw i8, ptr %8, i64 60
  %10 = load i32, ptr %9, align 4
  tail call void (i32, ptr, ...) @log_var(i32 noundef 6, ptr noundef nonnull @.str.75, i32 noundef %10) #10
  br label %11

11:                                               ; preds = %7, %2
  %12 = getelementptr inbounds nuw i8, ptr %0, i64 56
  %13 = load ptr, ptr %12, align 8
  %14 = load ptr, ptr %0, align 8
  %15 = getelementptr inbounds nuw i8, ptr %14, i64 8
  %16 = load i32, ptr %15, align 8
  %17 = load ptr, ptr %.8.val, align 8
  %18 = tail call ptr @acct_storage_g_get_qos(ptr noundef %13, i32 noundef %16, ptr noundef %17) #10
  store ptr %18, ptr %3, align 8
  %19 = tail call ptr @__errno_location() #12
  %20 = load i32, ptr %19, align 4
  %21 = icmp ne i32 %20, 2002
  %22 = icmp ne ptr %18, null
  %or.cond = select i1 %21, i1 true, i1 %22
  br i1 %or.cond, label %25, label %23

23:                                               ; preds = %11
  %24 = tail call ptr @list_create(ptr noundef null) #10
  store ptr %24, ptr %3, align 8
  %.pr = load i32, ptr %19, align 4
  br label %25

25:                                               ; preds = %23, %11
  %26 = phi ptr [ %24, %23 ], [ %18, %11 ]
  %27 = phi i32 [ %.pr, %23 ], [ %20, %11 ]
  %.not = icmp eq i32 %27, 0
  br i1 %.not, label %28, label %37

28:                                               ; preds = %25
  %.not15 = icmp eq ptr %26, null
  br i1 %.not15, label %29, label %31

29:                                               ; preds = %28
  %30 = tail call ptr @list_create(ptr noundef null) #10
  store ptr %30, ptr %3, align 8
  br label %31

31:                                               ; preds = %29, %28
  %32 = tail call ptr @init_buf(i32 noundef 1024) #10
  store ptr %32, ptr %1, align 8
  tail call void @pack16(i16 noundef zeroext 1449, ptr noundef %32) #10
  %33 = load ptr, ptr %0, align 8
  %34 = getelementptr inbounds nuw i8, ptr %33, i64 168
  %35 = load i16, ptr %34, align 8
  %36 = load ptr, ptr %1, align 8
  call void @slurmdbd_pack_list_msg(ptr noundef nonnull %3, i16 noundef zeroext %35, i32 noundef 1449, ptr noundef %36) #10
  %.pre = load ptr, ptr %3, align 8
  br label %41

37:                                               ; preds = %25
  %38 = load ptr, ptr %0, align 8
  %39 = tail call ptr @slurm_strerror(i32 noundef %27) #10
  %40 = tail call ptr @slurm_persist_make_rc_msg(ptr noundef %38, i32 noundef %27, ptr noundef %39, i16 noundef zeroext 1448) #10
  store ptr %40, ptr %1, align 8
  br label %41

41:                                               ; preds = %31, %37
  %42 = phi ptr [ %26, %37 ], [ %.pre, %31 ]
  %.0 = phi i32 [ -1, %37 ], [ 0, %31 ]
  %.not16 = icmp eq ptr %42, null
  br i1 %.not16, label %44, label %43

43:                                               ; preds = %41
  call void @list_destroy(ptr noundef nonnull %42) #10
  br label %44

44:                                               ; preds = %43, %41
  call void @llvm.lifetime.end.p0(i64 16, ptr nonnull %3) #10
  ret i32 %.0
}